; ModuleID = 'source-C-CXX/48/49.cpp'
source_filename = "source-C-CXX/48/49.cpp"
target datalayout = "e-m:e-p270:32:32-p271:32:32-p272:64:64-i64:64-f80:128-n8:16:32:64-S128"
target triple = "x86_64-pc-linux-gnu"

%"class.std::ios_base::Init" = type { i8 }
%"class.std::basic_istream" = type { i32 (...)**, i64, %"class.std::basic_ios" }
%"class.std::basic_ios" = type { %"class.std::ios_base", %"class.std::basic_ostream"*, i8, i8, %"class.std::basic_streambuf"*, %"class.std::ctype"*, %"class.std::num_put"*, %"class.std::num_get"* }
%"class.std::ios_base" = type { i32 (...)**, i64, i64, i32, i32, i32, %"struct.std::ios_base::_Callback_list"*, %"struct.std::ios_base::_Words", [8 x %"struct.std::ios_base::_Words"], i32, %"struct.std::ios_base::_Words"*, %"class.std::locale" }
%"struct.std::ios_base::_Callback_list" = type { %"struct.std::ios_base::_Callback_list"*, void (i32, %"class.std::ios_base"*, i32)*, i32, i32 }
%"struct.std::ios_base::_Words" = type { i8*, i64 }
%"class.std::locale" = type { %"class.std::locale::_Impl"* }
%"class.std::locale::_Impl" = type { i32, %"class.std::locale::facet"**, i64, %"class.std::locale::facet"**, i8** }
%"class.std::locale::facet" = type <{ i32 (...)**, i32, [4 x i8] }>
%"class.std::basic_ostream" = type { i32 (...)**, %"class.std::basic_ios" }
%"class.std::basic_streambuf" = type { i32 (...)**, i8*, i8*, i8*, i8*, i8*, i8*, %"class.std::locale" }
%"class.std::ctype" = type <{ %"class.std::locale::facet.base", [4 x i8], %struct.__locale_struct*, i8, [7 x i8], i32*, i32*, i16*, i8, [256 x i8], [256 x i8], i8, [6 x i8] }>
%"class.std::locale::facet.base" = type <{ i32 (...)**, i32 }>
%struct.__locale_struct = type { [13 x %struct.__locale_data*], i16*, i32*, i32*, [13 x i8*] }
%struct.__locale_data = type opaque
%"class.std::num_put" = type { %"class.std::locale::facet.base", [4 x i8] }
%"class.std::num_get" = type { %"class.std::locale::facet.base", [4 x i8] }

@_ZStL8__ioinit = internal global %"class.std::ios_base::Init" zeroinitializer, align 1
@__dso_handle = external hidden global i8
@a = dso_local global [501 x i8] zeroinitializer, align 16
@_ZSt3cin = external global %"class.std::basic_istream", align 8
@_ZSt4cout = external global %"class.std::basic_ostream", align 8
@llvm.global_ctors = appending global [1 x { i32, void ()*, i8* }] [{ i32, void ()*, i8* } { i32 65535, void ()* @_GLOBAL__sub_I_49.cpp, i8* null }]

declare void @_ZNSt8ios_base4InitC1Ev(%"class.std::ios_base::Init"* nonnull align 1 dereferenceable(1)) unnamed_addr #0

; Function Attrs: nounwind
declare void @_ZNSt8ios_base4InitD1Ev(%"class.std::ios_base::Init"* nonnull align 1 dereferenceable(1)) unnamed_addr #1

; Function Attrs: nofree nounwind
declare i32 @__cxa_atexit(void (i8*)*, i8*, i8*) local_unnamed_addr #2

; Function Attrs: mustprogress nofree norecurse nosync nounwind readonly sspstrong uwtable willreturn
define dso_local i32 @_Z5Judgeii(i32 %0, i32 %1) local_unnamed_addr #3 {
  %3 = add nsw i32 %1, %0
  %4 = add nsw i32 %3, -1
  %5 = sdiv i32 %4, 2
  %6 = icmp slt i32 %5, %0
  br i1 %6, label %7, label %9

7:                                                ; preds = %2
  %8 = add nsw i32 %5, 1
  br label %27

9:                                                ; preds = %2
  %10 = sext i32 %0 to i64
  %11 = sext i32 %3 to i64
  %12 = add nsw i32 %5, 1
  br label %13

13:                                               ; preds = %9, %21
  %14 = phi i64 [ %10, %9 ], [ %22, %21 ]
  %15 = getelementptr inbounds [501 x i8], [501 x i8]* @a, i64 0, i64 %14
  %16 = load i8, i8* %15, align 1, !tbaa !5
  %17 = sub nsw i64 %11, %14
  %18 = getelementptr inbounds [501 x i8], [501 x i8]* @a, i64 0, i64 %17
  %19 = load i8, i8* %18, align 1, !tbaa !5
  %20 = icmp eq i8 %16, %19
  br i1 %20, label %21, label %25

21:                                               ; preds = %13
  %22 = add nsw i64 %14, 1
  %23 = trunc i64 %22 to i32
  %24 = icmp eq i32 %12, %23
  br i1 %24, label %27, label %13, !llvm.loop !8

25:                                               ; preds = %13
  %26 = trunc i64 %14 to i32
  br label %27

27:                                               ; preds = %21, %25, %7
  %28 = phi i32 [ %8, %7 ], [ %12, %25 ], [ %12, %21 ]
  %29 = phi i32 [ %0, %7 ], [ %26, %25 ], [ %12, %21 ]
  %30 = icmp eq i32 %29, %28
  %31 = zext i1 %30 to i32
  ret i32 %31
}

; Function Attrs: mustprogress norecurse sspstrong uwtable
define dso_local i32 @main() local_unnamed_addr #4 {
  %1 = alloca i8, align 1
  tail call void @_ZSt17__istream_extractRSiPcl(%"class.std::basic_istream"* nonnull align 8 dereferenceable(16) @_ZSt3cin, i8* nonnull getelementptr inbounds ([501 x i8], [501 x i8]* @a, i64 0, i64 0), i64 501)
  %2 = tail call i64 @strlen(i8* noundef nonnull dereferenceable(1) getelementptr inbounds ([501 x i8], [501 x i8]* @a, i64 0, i64 0)) #9
  %3 = trunc i64 %2 to i32
  %4 = icmp slt i32 %3, 2
  br i1 %4, label %18, label %5

5:                                                ; preds = %0
  %6 = shl i64 %2, 32
  %7 = ashr exact i64 %6, 32
  %8 = add i64 %2, 1
  %9 = and i64 %8, 4294967295
  br label %10

10:                                               ; preds = %5, %19
  %11 = phi i64 [ 2, %5 ], [ %20, %19 ]
  %12 = phi i32 [ %3, %5 ], [ %13, %19 ]
  %13 = add i32 %12, -1
  %14 = icmp slt i64 %7, %11
  br i1 %14, label %19, label %15

15:                                               ; preds = %10
  %16 = zext i32 %13 to i64
  %17 = trunc i64 %11 to i32
  br label %22

18:                                               ; preds = %19, %0
  ret i32 0

19:                                               ; preds = %93, %10
  %20 = add nuw nsw i64 %11, 1
  %21 = icmp eq i64 %20, %9
  br i1 %21, label %18, label %10, !llvm.loop !10

22:                                               ; preds = %15, %93
  %23 = phi i64 [ 0, %15 ], [ %94, %93 ]
  %24 = phi i32 [ 0, %15 ], [ %95, %93 ]
  %25 = add nuw nsw i64 %23, %11
  %26 = add nuw nsw i32 %24, %17
  %27 = trunc i64 %23 to i32
  %28 = add i32 %27, -1
  %29 = add i32 %28, %26
  %30 = add nsw i32 %29, -1
  %31 = sdiv i32 %30, 2
  %32 = sext i32 %31 to i64
  %33 = icmp sgt i64 %23, %32
  br i1 %33, label %34, label %36

34:                                               ; preds = %22
  %35 = add nsw i32 %31, 1
  br label %51

36:                                               ; preds = %22
  %37 = sext i32 %29 to i64
  %38 = add nsw i32 %31, 1
  br label %39

39:                                               ; preds = %47, %36
  %40 = phi i64 [ %23, %36 ], [ %48, %47 ]
  %41 = getelementptr inbounds [501 x i8], [501 x i8]* @a, i64 0, i64 %40
  %42 = load i8, i8* %41, align 1, !tbaa !5
  %43 = sub nsw i64 %37, %40
  %44 = getelementptr inbounds [501 x i8], [501 x i8]* @a, i64 0, i64 %43
  %45 = load i8, i8* %44, align 1, !tbaa !5
  %46 = icmp eq i8 %42, %45
  br i1 %46, label %47, label %51

47:                                               ; preds = %39
  %48 = add nuw nsw i64 %40, 1
  %49 = trunc i64 %48 to i32
  %50 = icmp eq i32 %38, %49
  br i1 %50, label %56, label %39, !llvm.loop !8

51:                                               ; preds = %39, %34
  %52 = phi i64 [ %23, %34 ], [ %40, %39 ]
  %53 = phi i32 [ %35, %34 ], [ %38, %39 ]
  %54 = trunc i64 %52 to i32
  %55 = icmp eq i32 %53, %54
  br i1 %55, label %56, label %93

56:                                               ; preds = %47, %51
  %57 = and i64 %25, 4294967295
  br label %86

58:                                               ; preds = %86
  %59 = load i8*, i8** bitcast (%"class.std::basic_ostream"* @_ZSt4cout to i8**), align 8, !tbaa !11
  %60 = getelementptr i8, i8* %59, i64 -24
  %61 = bitcast i8* %60 to i64*
  %62 = load i64, i64* %61, align 8
  %63 = add nsw i64 %62, 240
  %64 = getelementptr inbounds i8, i8* bitcast (%"class.std::basic_ostream"* @_ZSt4cout to i8*), i64 %63
  %65 = bitcast i8* %64 to %"class.std::ctype"**
  %66 = load %"class.std::ctype"*, %"class.std::ctype"** %65, align 8, !tbaa !13
  %67 = icmp eq %"class.std::ctype"* %66, null
  br i1 %67, label %68, label %69

68:                                               ; preds = %58
  call void @_ZSt16__throw_bad_castv() #10
  unreachable

69:                                               ; preds = %58
  %70 = getelementptr inbounds %"class.std::ctype", %"class.std::ctype"* %66, i64 0, i32 8
  %71 = load i8, i8* %70, align 8, !tbaa !17
  %72 = icmp eq i8 %71, 0
  br i1 %72, label %76, label %73

73:                                               ; preds = %69
  %74 = getelementptr inbounds %"class.std::ctype", %"class.std::ctype"* %66, i64 0, i32 9, i64 10
  %75 = load i8, i8* %74, align 1, !tbaa !5
  br label %82

76:                                               ; preds = %69
  call void @_ZNKSt5ctypeIcE13_M_widen_initEv(%"class.std::ctype"* nonnull align 8 dereferenceable(570) %66)
  %77 = bitcast %"class.std::ctype"* %66 to i8 (%"class.std::ctype"*, i8)***
  %78 = load i8 (%"class.std::ctype"*, i8)**, i8 (%"class.std::ctype"*, i8)*** %77, align 8, !tbaa !11
  %79 = getelementptr inbounds i8 (%"class.std::ctype"*, i8)*, i8 (%"class.std::ctype"*, i8)** %78, i64 6
  %80 = load i8 (%"class.std::ctype"*, i8)*, i8 (%"class.std::ctype"*, i8)** %79, align 8
  %81 = call signext i8 %80(%"class.std::ctype"* nonnull align 8 dereferenceable(570) %66, i8 signext 10)
  br label %82

82:                                               ; preds = %73, %76
  %83 = phi i8 [ %75, %73 ], [ %81, %76 ]
  %84 = call nonnull align 8 dereferenceable(8) %"class.std::basic_ostream"* @_ZNSo3putEc(%"class.std::basic_ostream"* nonnull align 8 dereferenceable(8) @_ZSt4cout, i8 signext %83)
  %85 = call nonnull align 8 dereferenceable(8) %"class.std::basic_ostream"* @_ZNSo5flushEv(%"class.std::basic_ostream"* nonnull align 8 dereferenceable(8) %84)
  br label %93

86:                                               ; preds = %56, %86
  %87 = phi i64 [ %23, %56 ], [ %91, %86 ]
  %88 = getelementptr inbounds [501 x i8], [501 x i8]* @a, i64 0, i64 %87
  %89 = load i8, i8* %88, align 1, !tbaa !5
  call void @llvm.lifetime.start.p0i8(i64 1, i8* nonnull %1)
  store i8 %89, i8* %1, align 1, !tbaa !5
  %90 = call nonnull align 8 dereferenceable(8) %"class.std::basic_ostream"* @_ZSt16__ostream_insertIcSt11char_traitsIcEERSt13basic_ostreamIT_T0_ES6_PKS3_l(%"class.std::basic_ostream"* nonnull align 8 dereferenceable(8) @_ZSt4cout, i8* nonnull %1, i64 1)
  call void @llvm.lifetime.end.p0i8(i64 1, i8* nonnull %1)
  %91 = add nuw nsw i64 %87, 1
  %92 = icmp ult i64 %91, %57
  br i1 %92, label %86, label %58, !llvm.loop !19

93:                                               ; preds = %51, %82
  %94 = add nuw nsw i64 %23, 1
  %95 = add nuw nsw i32 %24, 1
  %96 = icmp eq i64 %94, %16
  br i1 %96, label %19, label %22, !llvm.loop !20
}

; Function Attrs: argmemonly mustprogress nofree nounwind readonly willreturn
declare i64 @strlen(i8* nocapture) local_unnamed_addr #5

declare void @_ZSt17__istream_extractRSiPcl(%"class.std::basic_istream"* nonnull align 8 dereferenceable(16), i8*, i64) local_unnamed_addr #0

declare nonnull align 8 dereferenceable(8) %"class.std::basic_ostream"* @_ZSt16__ostream_insertIcSt11char_traitsIcEERSt13basic_ostreamIT_T0_ES6_PKS3_l(%"class.std::basic_ostream"* nonnull align 8 dereferenceable(8), i8*, i64) local_unnamed_addr #0

declare nonnull align 8 dereferenceable(8) %"class.std::basic_ostream"* @_ZNSo3putEc(%"class.std::basic_ostream"* nonnull align 8 dereferenceable(8), i8 signext) local_unnamed_addr #0

declare nonnull align 8 dereferenceable(8) %"class.std::basic_ostream"* @_ZNSo5flushEv(%"class.std::basic_ostream"* nonnull align 8 dereferenceable(8)) local_unnamed_addr #0

; Function Attrs: noreturn
declare void @_ZSt16__throw_bad_castv() local_unnamed_addr #6

declare void @_ZNKSt5ctypeIcE13_M_widen_initEv(%"class.std::ctype"* nonnull align 8 dereferenceable(570)) local_unnamed_addr #0

; Function Attrs: sspstrong uwtable
define internal void @_GLOBAL__sub_I_49.cpp() #7 section ".text.startup" {
  tail call void @_ZNSt8ios_base4InitC1Ev(%"class.std::ios_base::Init"* nonnull align 1 dereferenceable(1) @_ZStL8__ioinit)
  %1 = tail call i32 @__cxa_atexit(void (i8*)* bitcast (void (%"class.std::ios_base::Init"*)* @_ZNSt8ios_base4InitD1Ev to void (i8*)*), i8* getelementptr inbounds (%"class.std::ios_base::Init", %"class.std::ios_base::Init"* @_ZStL8__ioinit, i64 0, i32 0), i8* nonnull @__dso_handle) #11
  ret void
}

; Function Attrs: argmemonly nofree nosync nounwind willreturn
declare void @llvm.lifetime.start.p0i8(i64 immarg, i8* nocapture) #8

; Function Attrs: argmemonly nofree nosync nounwind willreturn
declare void @llvm.lifetime.end.p0i8(i64 immarg, i8* nocapture) #8


!llvm.module.flags = !{!0, !1, !2, !3}
!llvm.ident = !{!4}

!0 = !{i32 1, !"wchar_size", i32 4}
!1 = !{i32 7, !"PIC Level", i32 2}
!2 = !{i32 7, !"PIE Level", i32 2}
!3 = !{i32 7, !"uwtable", i32 1}
!4 = !{!"clang version 13.0.0"}
!5 = !{!6, !6, i64 0}
!6 = !{!"omnipotent char", !7, i64 0}
!7 = !{!"Simple C++ TBAA"}
!8 = distinct !{!8, !9}
!9 = !{!"llvm.loop.mustprogress"}
!10 = distinct !{!10, !9}
!11 = !{!12, !12, i64 0}
!12 = !{!"vtable pointer", !7, i64 0}
!13 = !{!14, !15, i64 240}
!14 = !{!"_ZTSSt9basic_iosIcSt11char_traitsIcEE", !15, i64 216, !6, i64 224, !16, i64 225, !15, i64 232, !15, i64 240, !15, i64 248, !15, i64 256}
!15 = !{!"any pointer", !6, i64 0}
!16 = !{!"bool", !6, i64 0}
!17 = !{!18, !6, i64 56}
!18 = !{!"_ZTSSt5ctypeIcE", !15, i64 16, !16, i64 24, !15, i64 32, !15, i64 40, !15, i64 48, !6, i64 56, !6, i64 57, !6, i64 313, !6, i64 569}
!19 = distinct !{!19, !9}
!20 = distinct !{!20, !9}
